(dp0
S'7205679400'
p1
S'aprc.rel\x08\x08\x08doc'
p2
sS'8880428779'
p3
S'dd.rel'
p4
sS'9932629542'
p5
S'barnali\x08\x08.ambhi'
p6
sS'8147830733'
p7
S'dd.doc'
p8
sS'7501273642'
p9
S"'\x08"
p10
sS'Hello'
p11
S''
p12
s.