(dp0
S'7205679400'
p1
S'aprc.rel\x08\x08\x08doc'
p2
sS'9932629542'
p3
S'barnali\x08\x08.ambhi'
p4
sS'8880428779'
p5
S'dd.rel'
p6
sS'8147830733'
p7
S''
p8
sS'7501273642'
p9
S"'\x08"
p10
sS'Hello'
p11
g8
s.